target datalayout = "e-m:e-p270:32:32-p271:32:32-p272:64:64-i64:64-i128:128-f80:128-n8:16:32:64-S128"
target triple = "x86_64-pc-linux-gnu"

%struct.ExprEvalStep = type { i64, ptr, ptr, %union.anon }
%union.anon = type { %struct.anon.23 }
%struct.anon.23 = type { ptr, ptr, i32, i32, ptr, ptr }
%struct.anon.39 = type { ptr }

; Function Attrs: nounwind uwtable
define dso_local void @ExecEvalSubPlan(ptr noundef %0, ptr noundef %1, ptr noundef %2) #0 {
  %4 = alloca ptr, align 8
  %5 = alloca ptr, align 8
  %6 = alloca ptr, align 8
  %7 = alloca ptr, align 8
  store ptr %0, ptr %4, align 8
  store ptr %1, ptr %5, align 8
  store ptr %2, ptr %6, align 8
  call void @llvm.lifetime.start.p0(i64 8, ptr %7) #11
  %8 = load ptr, ptr %5, align 8
  %9 = getelementptr inbounds nuw %struct.ExprEvalStep, ptr %8, i32 0, i32 3
  %10 = getelementptr inbounds nuw %struct.anon.39, ptr %9, i32 0, i32 0
  %11 = load ptr, ptr %10, align 8
  store ptr %11, ptr %7, align 8
  call void @check_stack_depth()
  %12 = load ptr, ptr %7, align 8
  %13 = load ptr, ptr %6, align 8
  %14 = load ptr, ptr %5, align 8
  %15 = getelementptr inbounds nuw %struct.ExprEvalStep, ptr %14, i32 0, i32 2
  %16 = load ptr, ptr %15, align 8
  %17 = call i64 @ExecSubPlan(ptr noundef %12, ptr noundef %13, ptr noundef %16)
  %18 = load ptr, ptr %5, align 8
  %19 = getelementptr inbounds nuw %struct.ExprEvalStep, ptr %18, i32 0, i32 1
  %20 = load ptr, ptr %19, align 8
  store i64 %17, ptr %20, align 8
  call void @llvm.lifetime.end.p0(i64 8, ptr %7) #11
  ret void
}