; Function Attrs: nounwind uwtable
define dso_local void @ExecEvalSubPlan(ptr noundef readnone captures(none) %0, ptr noundef readonly captures(none) %1, ptr noundef %2) local_unnamed_addr #0 {
  %4 = getelementptr inbounds nuw i8, ptr %1, i64 24
  %5 = load ptr, ptr %4, align 8
  tail call void @check_stack_depth() #18
  %6 = getelementptr inbounds nuw i8, ptr %1, i64 16
  %7 = load ptr, ptr %6, align 8
  %8 = tail call i64 @ExecSubPlan(ptr noundef %5, ptr noundef %2, ptr noundef %7) #18
  %9 = getelementptr inbounds nuw i8, ptr %1, i64 8
  %10 = load ptr, ptr %9, align 8
  store i64 %8, ptr %10, align 8
  ret void
}